target datalayout = "e-m:e-p270:32:32-p271:32:32-p272:64:64-i64:64-i128:128-f80:128-n8:16:32:64-S128"
target triple = "x86_64-pc-linux-gnu"

%"class.grpc_core::Timeout" = type <{ i16, i8, i8 }>
%"class.grpc_core::Slice" = type { %"class.grpc_core::slice_detail::BaseSlice" }
%"class.grpc_core::slice_detail::BaseSlice" = type { %struct.grpc_slice }
%struct.grpc_slice = type { ptr, %"union.grpc_slice::grpc_slice_data" }
%"union.grpc_slice::grpc_slice_data" = type { %"struct.grpc_slice::grpc_slice_data::grpc_slice_refcounted", [8 x i8] }
%"struct.grpc_slice::grpc_slice_data::grpc_slice_refcounted" = type { i64, ptr }

; Function Attrs: mustprogress nounwind uwtable
define linkonce_odr void @_ZN9grpc_core12slice_detail9BaseSliceC2ERK10grpc_slice(ptr noundef nonnull align 8 dereferenceable(32) %0, ptr noundef nonnull align 8 dereferenceable(32) %1) unnamed_addr #5 comdat align 2 {
  %3 = alloca ptr, align 8
  %4 = alloca ptr, align 8
  store ptr %0, ptr %3, align 8, !tbaa !40
  store ptr %1, ptr %4, align 8, !tbaa !59
  %5 = load ptr, ptr %3, align 8
  %6 = getelementptr inbounds nuw %"class.grpc_core::slice_detail::BaseSlice", ptr %5, i32 0, i32 0
  %7 = load ptr, ptr %4, align 8, !tbaa !59
  call void @llvm.memcpy.p0.p0.i64(ptr align 8 %6, ptr align 8 %7, i64 32, i1 false), !tbaa.struct !61
  ret void
}

; Function Attrs: mustprogress uwtable
define linkonce_odr void @_ZN9grpc_core5SliceC2ERK10grpc_slice(ptr noundef nonnull align 8 dereferenceable(32) %0, ptr noundef nonnull align 8 dereferenceable(32) %1) unnamed_addr #4 comdat align 2 {
  %3 = alloca ptr, align 8
  %4 = alloca ptr, align 8
  store ptr %0, ptr %3, align 8, !tbaa !34
  store ptr %1, ptr %4, align 8, !tbaa !59
  %5 = load ptr, ptr %3, align 8
  %6 = load ptr, ptr %4, align 8, !tbaa !59
  call void @_ZN9grpc_core12slice_detail9BaseSliceC2ERK10grpc_slice(ptr noundef nonnull align 8 dereferenceable(32) %5, ptr noundef nonnull align 8 dereferenceable(32) %6)
  ret void
}

; Function Attrs: mustprogress uwtable
define linkonce_odr void @_ZN9grpc_core12slice_detail16CopyConstructorsINS_5SliceEE16FromCopiedBufferEPKcm(ptr dead_on_unwind noalias writable sret(%"class.grpc_core::Slice") align 8 %0, ptr noundef %1, i64 noundef %2) #4 comdat align 2 {
  %4 = alloca ptr, align 8
  %5 = alloca ptr, align 8
  %6 = alloca i64, align 8
  %7 = alloca %struct.grpc_slice, align 8
  store ptr %0, ptr %4, align 8
  store ptr %1, ptr %5, align 8, !tbaa !21
  store i64 %2, ptr %6, align 8, !tbaa !3
  call void @llvm.lifetime.start.p0(i64 32, ptr %7) #3
  %8 = load ptr, ptr %5, align 8, !tbaa !21
  %9 = load i64, ptr %6, align 8, !tbaa !3
  call void @grpc_slice_from_copied_buffer(ptr dead_on_unwind writable sret(%struct.grpc_slice) align 8 %7, ptr noundef %8, i64 noundef %9)
  call void @_ZN9grpc_core5SliceC2ERK10grpc_slice(ptr noundef nonnull align 8 dereferenceable(32) %0, ptr noundef nonnull align 8 dereferenceable(32) %7)
  call void @llvm.lifetime.end.p0(i64 32, ptr %7) #3
  ret void
}

; Function Attrs: mustprogress uwtable
define void @_ZNK9grpc_core7Timeout6EncodeEv(ptr dead_on_unwind noalias writable sret(%"class.grpc_core::Slice") align 8 %0, ptr noundef nonnull align 2 dereferenceable(3) %1) #4 align 2 {
  %3 = alloca ptr, align 8
  %4 = alloca ptr, align 8
  %5 = alloca [10 x i8], align 1
  %6 = alloca ptr, align 8
  %7 = alloca i16, align 2
  %8 = alloca i32, align 4
  store ptr %0, ptr %3, align 8
  store ptr %1, ptr %4, align 8, !tbaa !12
  %9 = load ptr, ptr %4, align 8
  call void @llvm.lifetime.start.p0(i64 10, ptr %5) #3
  call void @llvm.lifetime.start.p0(i64 8, ptr %6) #3
  %10 = getelementptr inbounds [10 x i8], ptr %5, i64 0, i64 0
  store ptr %10, ptr %6, align 8, !tbaa !21
  call void @llvm.lifetime.start.p0(i64 2, ptr %7) #3
  %11 = getelementptr inbounds nuw %"class.grpc_core::Timeout", ptr %9, i32 0, i32 0
  %12 = load i16, ptr %11, align 2, !tbaa !16
  store i16 %12, ptr %7, align 2, !tbaa !23
  call void @llvm.lifetime.start.p0(i64 4, ptr %8) #3
  %13 = load i16, ptr %7, align 2, !tbaa !23
  %14 = zext i16 %13 to i32
  %15 = icmp sge i32 %14, 10000
  br i1 %15, label %16, label %17

16:                                               ; preds = %2
  store i32 5, ptr %8, align 4, !tbaa !24
  br label %36

17:                                               ; preds = %2
  %18 = load i16, ptr %7, align 2, !tbaa !23
  %19 = zext i16 %18 to i32
  %20 = icmp sge i32 %19, 1000
  br i1 %20, label %21, label %22

21:                                               ; preds = %17
  store i32 4, ptr %8, align 4, !tbaa !24
  br label %35

22:                                               ; preds = %17
  %23 = load i16, ptr %7, align 2, !tbaa !23
  %24 = zext i16 %23 to i32
  %25 = icmp sge i32 %24, 100
  br i1 %25, label %26, label %27

26:                                               ; preds = %22
  store i32 3, ptr %8, align 4, !tbaa !24
  br label %34

27:                                               ; preds = %22
  %28 = load i16, ptr %7, align 2, !tbaa !23
  %29 = zext i16 %28 to i32
  %30 = icmp sge i32 %29, 10
  br i1 %30, label %31, label %32

31:                                               ; preds = %27
  store i32 2, ptr %8, align 4, !tbaa !24
  br label %33

32:                                               ; preds = %27
  store i32 1, ptr %8, align 4, !tbaa !24
  br label %33

33:                                               ; preds = %32, %31
  br label %34

34:                                               ; preds = %33, %26
  br label %35

35:                                               ; preds = %34, %21
  br label %36

36:                                               ; preds = %35, %16
  %37 = load i32, ptr %8, align 4, !tbaa !24
  switch i32 %37, label %93 [
    i32 5, label %38
    i32 4, label %50
    i32 3, label %62
    i32 2, label %74
    i32 1, label %86
  ]

38:                                               ; preds = %36
  %39 = load i16, ptr %7, align 2, !tbaa !23
  %40 = zext i16 %39 to i32
  %41 = sdiv i32 %40, 10000
  %42 = add nsw i32 48, %41
  %43 = trunc i32 %42 to i8
  %44 = load ptr, ptr %6, align 8, !tbaa !21
  %45 = getelementptr inbounds nuw i8, ptr %44, i32 1
  store ptr %45, ptr %6, align 8, !tbaa !21
  store i8 %43, ptr %44, align 1, !tbaa !26
  %46 = load i16, ptr %7, align 2, !tbaa !23
  %47 = zext i16 %46 to i32
  %48 = srem i32 %47, 10000
  %49 = trunc i32 %48 to i16
  store i16 %49, ptr %7, align 2, !tbaa !23
  br label %50

50:                                               ; preds = %36, %38
  %51 = load i16, ptr %7, align 2, !tbaa !23
  %52 = zext i16 %51 to i32
  %53 = sdiv i32 %52, 1000
  %54 = add nsw i32 48, %53
  %55 = trunc i32 %54 to i8
  %56 = load ptr, ptr %6, align 8, !tbaa !21
  %57 = getelementptr inbounds nuw i8, ptr %56, i32 1
  store ptr %57, ptr %6, align 8, !tbaa !21
  store i8 %55, ptr %56, align 1, !tbaa !26
  %58 = load i16, ptr %7, align 2, !tbaa !23
  %59 = zext i16 %58 to i32
  %60 = srem i32 %59, 1000
  %61 = trunc i32 %60 to i16
  store i16 %61, ptr %7, align 2, !tbaa !23
  br label %62

62:                                               ; preds = %36, %50
  %63 = load i16, ptr %7, align 2, !tbaa !23
  %64 = zext i16 %63 to i32
  %65 = sdiv i32 %64, 100
  %66 = add nsw i32 48, %65
  %67 = trunc i32 %66 to i8
  %68 = load ptr, ptr %6, align 8, !tbaa !21
  %69 = getelementptr inbounds nuw i8, ptr %68, i32 1
  store ptr %69, ptr %6, align 8, !tbaa !21
  store i8 %67, ptr %68, align 1, !tbaa !26
  %70 = load i16, ptr %7, align 2, !tbaa !23
  %71 = zext i16 %70 to i32
  %72 = srem i32 %71, 100
  %73 = trunc i32 %72 to i16
  store i16 %73, ptr %7, align 2, !tbaa !23
  br label %74

74:                                               ; preds = %36, %62
  %75 = load i16, ptr %7, align 2, !tbaa !23
  %76 = zext i16 %75 to i32
  %77 = sdiv i32 %76, 10
  %78 = add nsw i32 48, %77
  %79 = trunc i32 %78 to i8
  %80 = load ptr, ptr %6, align 8, !tbaa !21
  %81 = getelementptr inbounds nuw i8, ptr %80, i32 1
  store ptr %81, ptr %6, align 8, !tbaa !21
  store i8 %79, ptr %80, align 1, !tbaa !26
  %82 = load i16, ptr %7, align 2, !tbaa !23
  %83 = zext i16 %82 to i32
  %84 = srem i32 %83, 10
  %85 = trunc i32 %84 to i16
  store i16 %85, ptr %7, align 2, !tbaa !23
  br label %86

86:                                               ; preds = %36, %74
  %87 = load i16, ptr %7, align 2, !tbaa !23
  %88 = zext i16 %87 to i32
  %89 = add nsw i32 48, %88
  %90 = trunc i32 %89 to i8
  %91 = load ptr, ptr %6, align 8, !tbaa !21
  %92 = getelementptr inbounds nuw i8, ptr %91, i32 1
  store ptr %92, ptr %6, align 8, !tbaa !21
  store i8 %90, ptr %91, align 1, !tbaa !26
  br label %93

93:                                               ; preds = %86, %36
  %94 = getelementptr inbounds nuw %"class.grpc_core::Timeout", ptr %9, i32 0, i32 1
  %95 = load i8, ptr %94, align 2, !tbaa !20
  switch i8 %95, label %129 [
    i8 0, label %96
    i8 3, label %99
    i8 2, label %102
    i8 1, label %105
    i8 6, label %108
    i8 5, label %111
    i8 4, label %114
    i8 9, label %117
    i8 8, label %120
    i8 7, label %123
    i8 10, label %126
  ]

96:                                               ; preds = %93
  %97 = load ptr, ptr %6, align 8, !tbaa !21
  %98 = getelementptr inbounds nuw i8, ptr %97, i32 1
  store ptr %98, ptr %6, align 8, !tbaa !21
  store i8 110, ptr %97, align 1, !tbaa !26
  br label %129

99:                                               ; preds = %93
  %100 = load ptr, ptr %6, align 8, !tbaa !21
  %101 = getelementptr inbounds nuw i8, ptr %100, i32 1
  store ptr %101, ptr %6, align 8, !tbaa !21
  store i8 48, ptr %100, align 1, !tbaa !26
  br label %102

102:                                              ; preds = %93, %99
  %103 = load ptr, ptr %6, align 8, !tbaa !21
  %104 = getelementptr inbounds nuw i8, ptr %103, i32 1
  store ptr %104, ptr %6, align 8, !tbaa !21
  store i8 48, ptr %103, align 1, !tbaa !26
  br label %105

105:                                              ; preds = %93, %102
  %106 = load ptr, ptr %6, align 8, !tbaa !21
  %107 = getelementptr inbounds nuw i8, ptr %106, i32 1
  store ptr %107, ptr %6, align 8, !tbaa !21
  store i8 109, ptr %106, align 1, !tbaa !26
  br label %129

108:                                              ; preds = %93
  %109 = load ptr, ptr %6, align 8, !tbaa !21
  %110 = getelementptr inbounds nuw i8, ptr %109, i32 1
  store ptr %110, ptr %6, align 8, !tbaa !21
  store i8 48, ptr %109, align 1, !tbaa !26
  br label %111

111:                                              ; preds = %93, %108
  %112 = load ptr, ptr %6, align 8, !tbaa !21
  %113 = getelementptr inbounds nuw i8, ptr %112, i32 1
  store ptr %113, ptr %6, align 8, !tbaa !21
  store i8 48, ptr %112, align 1, !tbaa !26
  br label %114

114:                                              ; preds = %93, %111
  %115 = load ptr, ptr %6, align 8, !tbaa !21
  %116 = getelementptr inbounds nuw i8, ptr %115, i32 1
  store ptr %116, ptr %6, align 8, !tbaa !21
  store i8 83, ptr %115, align 1, !tbaa !26
  br label %129

117:                                              ; preds = %93
  %118 = load ptr, ptr %6, align 8, !tbaa !21
  %119 = getelementptr inbounds nuw i8, ptr %118, i32 1
  store ptr %119, ptr %6, align 8, !tbaa !21
  store i8 48, ptr %118, align 1, !tbaa !26
  br label %120

120:                                              ; preds = %93, %117
  %121 = load ptr, ptr %6, align 8, !tbaa !21
  %122 = getelementptr inbounds nuw i8, ptr %121, i32 1
  store ptr %122, ptr %6, align 8, !tbaa !21
  store i8 48, ptr %121, align 1, !tbaa !26
  br label %123

123:                                              ; preds = %93, %120
  %124 = load ptr, ptr %6, align 8, !tbaa !21
  %125 = getelementptr inbounds nuw i8, ptr %124, i32 1
  store ptr %125, ptr %6, align 8, !tbaa !21
  store i8 77, ptr %124, align 1, !tbaa !26
  br label %129

126:                                              ; preds = %93
  %127 = load ptr, ptr %6, align 8, !tbaa !21
  %128 = getelementptr inbounds nuw i8, ptr %127, i32 1
  store ptr %128, ptr %6, align 8, !tbaa !21
  store i8 72, ptr %127, align 1, !tbaa !26
  br label %129

129:                                              ; preds = %93, %126, %123, %114, %105, %96
  %130 = getelementptr inbounds [10 x i8], ptr %5, i64 0, i64 0
  %131 = load ptr, ptr %6, align 8, !tbaa !21
  %132 = getelementptr inbounds [10 x i8], ptr %5, i64 0, i64 0
  %133 = ptrtoint ptr %131 to i64
  %134 = ptrtoint ptr %132 to i64
  %135 = sub i64 %133, %134
  call void @_ZN9grpc_core12slice_detail16CopyConstructorsINS_5SliceEE16FromCopiedBufferEPKcm(ptr dead_on_unwind writable sret(%"class.grpc_core::Slice") align 8 %0, ptr noundef %130, i64 noundef %135)
  call void @llvm.lifetime.end.p0(i64 4, ptr %8) #3
  call void @llvm.lifetime.end.p0(i64 2, ptr %7) #3
  call void @llvm.lifetime.end.p0(i64 8, ptr %6) #3
  call void @llvm.lifetime.end.p0(i64 10, ptr %5) #3
  ret void
}