; Function Attrs: mustprogress uwtable
define void @_ZNK9grpc_core7Timeout6EncodeEv(ptr dead_on_unwind noalias writable sret(%"class.grpc_core::Slice") align 8 %0, ptr noundef nonnull readonly align 2 captures(none) dereferenceable(3) %1) local_unnamed_addr #4 align 2 {
  %3 = alloca [10 x i8], align 1
  call void @llvm.lifetime.start.p0(i64 10, ptr nonnull %3) #11
  %4 = load i16, ptr %1, align 2, !tbaa !3
  %5 = icmp ugt i16 %4, 9999
  br i1 %5, label %12, label %6

6:                                                ; preds = %2
  %7 = icmp samesign ugt i16 %4, 999
  br i1 %7, label %.thread38, label %8

8:                                                ; preds = %6
  %9 = icmp samesign ugt i16 %4, 99
  br i1 %9, label %.thread40, label %10

10:                                               ; preds = %8
  %11 = icmp samesign ugt i16 %4, 9
  br i1 %11, label %.thread42, label %32

12:                                               ; preds = %2
  %13 = udiv i16 %4, 10000
  %14 = trunc nuw nsw i16 %13 to i8
  %15 = or disjoint i8 %14, 48
  %16 = getelementptr inbounds nuw i8, ptr %3, i64 1
  store i8 %15, ptr %3, align 1, !tbaa !10
  %17 = urem i16 %4, 10000
  br label %.thread38

.thread38:                                        ; preds = %6, %12
  %.133 = phi ptr [ %16, %12 ], [ %3, %6 ]
  %.031 = phi i16 [ %17, %12 ], [ %4, %6 ]
  %18 = udiv i16 %.031, 1000
  %19 = trunc nuw nsw i16 %18 to i8
  %20 = add nuw nsw i8 %19, 48
  %21 = getelementptr inbounds nuw i8, ptr %.133, i64 1
  store i8 %20, ptr %.133, align 1, !tbaa !10
  %22 = urem i16 %.031, 1000
  br label %.thread40

.thread40:                                        ; preds = %8, %.thread38
  %.234 = phi ptr [ %21, %.thread38 ], [ %3, %8 ]
  %.1 = phi i16 [ %22, %.thread38 ], [ %4, %8 ]
  %23 = udiv i16 %.1, 100
  %24 = trunc nuw i16 %23 to i8
  %25 = or disjoint i8 %24, 48
  %26 = getelementptr inbounds nuw i8, ptr %.234, i64 1
  store i8 %25, ptr %.234, align 1, !tbaa !10
  %27 = urem i16 %.1, 100
  br label %.thread42

.thread42:                                        ; preds = %10, %.thread40
  %.335 = phi ptr [ %26, %.thread40 ], [ %3, %10 ]
  %.2 = phi i16 [ %27, %.thread40 ], [ %4, %10 ]
  %.lhs.trunc = trunc nuw i16 %.2 to i8
  %28 = udiv i8 %.lhs.trunc, 10
  %29 = or disjoint i8 %28, 48
  %30 = getelementptr inbounds nuw i8, ptr %.335, i64 1
  store i8 %29, ptr %.335, align 1, !tbaa !10
  %31 = urem i8 %.lhs.trunc, 10
  %.zext45 = zext nneg i8 %31 to i16
  br label %32

32:                                               ; preds = %10, %.thread42
  %.4 = phi ptr [ %30, %.thread42 ], [ %3, %10 ]
  %.3 = phi i16 [ %.zext45, %.thread42 ], [ %4, %10 ]
  %33 = trunc nuw i16 %.3 to i8
  %34 = add nuw nsw i8 %33, 48
  %35 = getelementptr inbounds nuw i8, ptr %.4, i64 1
  store i8 %34, ptr %.4, align 1, !tbaa !10
  %36 = getelementptr inbounds nuw i8, ptr %1, i64 2
  %37 = load i8, ptr %36, align 2, !tbaa !9
  switch i8 %37, label %60 [
    i8 0, label %38
    i8 3, label %40
    i8 2, label %42
    i8 1, label %44
    i8 6, label %46
    i8 5, label %48
    i8 4, label %50
    i8 9, label %52
    i8 8, label %54
    i8 7, label %56
    i8 10, label %58
  ]

38:                                               ; preds = %32
  %39 = getelementptr inbounds nuw i8, ptr %.4, i64 2
  store i8 110, ptr %35, align 1, !tbaa !10
  br label %60

40:                                               ; preds = %32
  %41 = getelementptr inbounds nuw i8, ptr %.4, i64 2
  store i8 48, ptr %35, align 1, !tbaa !10
  br label %42

42:                                               ; preds = %40, %32
  %.6 = phi ptr [ %35, %32 ], [ %41, %40 ]
  %43 = getelementptr inbounds nuw i8, ptr %.6, i64 1
  store i8 48, ptr %.6, align 1, !tbaa !10
  br label %44

44:                                               ; preds = %42, %32
  %.7 = phi ptr [ %35, %32 ], [ %43, %42 ]
  %45 = getelementptr inbounds nuw i8, ptr %.7, i64 1
  store i8 109, ptr %.7, align 1, !tbaa !10
  br label %60

46:                                               ; preds = %32
  %47 = getelementptr inbounds nuw i8, ptr %.4, i64 2
  store i8 48, ptr %35, align 1, !tbaa !10
  br label %48

48:                                               ; preds = %46, %32
  %.8 = phi ptr [ %35, %32 ], [ %47, %46 ]
  %49 = getelementptr inbounds nuw i8, ptr %.8, i64 1
  store i8 48, ptr %.8, align 1, !tbaa !10
  br label %50

50:                                               ; preds = %48, %32
  %.9 = phi ptr [ %35, %32 ], [ %49, %48 ]
  %51 = getelementptr inbounds nuw i8, ptr %.9, i64 1
  store i8 83, ptr %.9, align 1, !tbaa !10
  br label %60

52:                                               ; preds = %32
  %53 = getelementptr inbounds nuw i8, ptr %.4, i64 2
  store i8 48, ptr %35, align 1, !tbaa !10
  br label %54

54:                                               ; preds = %52, %32
  %.10 = phi ptr [ %35, %32 ], [ %53, %52 ]
  %55 = getelementptr inbounds nuw i8, ptr %.10, i64 1
  store i8 48, ptr %.10, align 1, !tbaa !10
  br label %56

56:                                               ; preds = %54, %32
  %.11 = phi ptr [ %35, %32 ], [ %55, %54 ]
  %57 = getelementptr inbounds nuw i8, ptr %.11, i64 1
  store i8 77, ptr %.11, align 1, !tbaa !10
  br label %60

58:                                               ; preds = %32
  %59 = getelementptr inbounds nuw i8, ptr %.4, i64 2
  store i8 72, ptr %35, align 1, !tbaa !10
  br label %60

60:                                               ; preds = %58, %56, %50, %44, %38, %32
  %.5 = phi ptr [ %35, %32 ], [ %59, %58 ], [ %57, %56 ], [ %51, %50 ], [ %45, %44 ], [ %39, %38 ]
  %61 = ptrtoint ptr %.5 to i64
  %62 = ptrtoint ptr %3 to i64
  %63 = sub i64 %61, %62
  call void @grpc_slice_from_copied_buffer(ptr dead_on_unwind nonnull writable sret(%struct.grpc_slice) align 8 %0, ptr noundef nonnull %3, i64 noundef %63)
  call void @llvm.lifetime.end.p0(i64 10, ptr nonnull %3) #11
  ret void
}